#include <math.h>
#include <stdio.h>
#include <stdlib.h>
#include <string.h>

int main()
{
   int n,i,a[100];
   scanf("%d",&n);
   for(i=0;i<n;i++)
   {
     scanf("%d",&a[i]);
   }
   printf("%d",*(a+n-1));
   for(i=n-2;i>=0;i--)
   {
     printf(" %d",*(a+i));
   }
	return 0;
}